target datalayout = "e-m:e-p270:32:32-p271:32:32-p272:64:64-i64:64-i128:128-f80:128-n8:16:32:64-S128"
target triple = "x86_64-pc-linux-gnu"

%struct.H5_user_cb_state_t = type { %struct.H5E_user_cb_state_t }
%struct.H5E_user_cb_state_t = type { i32, %union.anon, ptr }
%union.anon = type { ptr }
%struct.H5VL_class_t = type { i32, i32, ptr, i32, i64, ptr, ptr, %struct.H5VL_info_class_t, %struct.H5VL_wrap_class_t, %struct.H5VL_attr_class_t, %struct.H5VL_dataset_class_t, %struct.H5VL_datatype_class_t, %struct.H5VL_file_class_t, %struct.H5VL_group_class_t, %struct.H5VL_link_class_t, %struct.H5VL_object_class_t, %struct.H5VL_introspect_class_t, %struct.H5VL_request_class_t, %struct.H5VL_blob_class_t, %struct.H5VL_token_class_t, ptr }
%struct.H5VL_info_class_t = type { i64, ptr, ptr, ptr, ptr, ptr }
%struct.H5VL_wrap_class_t = type { ptr, ptr, ptr, ptr, ptr }
%struct.H5VL_attr_class_t = type { ptr, ptr, ptr, ptr, ptr, ptr, ptr, ptr }
%struct.H5VL_dataset_class_t = type { ptr, ptr, ptr, ptr, ptr, ptr, ptr, ptr }
%struct.H5VL_datatype_class_t = type { ptr, ptr, ptr, ptr, ptr, ptr }
%struct.H5VL_file_class_t = type { ptr, ptr, ptr, ptr, ptr, ptr }
%struct.H5VL_group_class_t = type { ptr, ptr, ptr, ptr, ptr, ptr }
%struct.H5VL_link_class_t = type { ptr, ptr, ptr, ptr, ptr, ptr }
%struct.H5VL_object_class_t = type { ptr, ptr, ptr, ptr, ptr }
%struct.H5VL_introspect_class_t = type { ptr, ptr, ptr }
%struct.H5VL_request_class_t = type { ptr, ptr, ptr, ptr, ptr, ptr }
%struct.H5VL_blob_class_t = type { ptr, ptr, ptr, ptr }
%struct.H5VL_token_class_t = type { ptr, ptr, ptr }

@.str = private unnamed_addr constant [106 x i8] c"generated/home/dtcxzyw/WorkSpace/Projects/compilers/llvm-opt-benchmark/bench/hdf5/hdf5/src/H5VLcallback.c\00", align 1
@H5E_LIB_g = external global i64, align 8
@H5E_CANTSET_g = external global i64, align 8
@.str.2 = private unnamed_addr constant [37 x i8] c"preparation for user callback failed\00", align 1
@H5E_CANTRESTORE_g = external global i64, align 8
@H5E_VOL_g = external global i64, align 8
@H5VL_init_g = external global i8, align 1
@H5_libterm_g = external global i8, align 1
@H5E_UNSUPPORTED_g = external global i64, align 8
@H5E_CANTCREATE_g = external global i64, align 8
@.str.112 = private unnamed_addr constant [19 x i8] c"link create failed\00", align 1
@__func__.H5VL__link_create = private unnamed_addr constant [18 x i8] c"H5VL__link_create\00", align 1
@.str.214 = private unnamed_addr constant [42 x i8] c"VOL connector has no 'link create' method\00", align 1

; Function Attrs: nounwind uwtable
define internal i32 @H5VL__link_create(ptr noundef %0, ptr noundef %1, ptr noundef %2, ptr noundef %3, i64 noundef %4, i64 noundef %5, i64 noundef %6, ptr noundef %7) #0 {
  %9 = alloca i32, align 4
  %10 = alloca ptr, align 8
  %11 = alloca ptr, align 8
  %12 = alloca ptr, align 8
  %13 = alloca ptr, align 8
  %14 = alloca i64, align 8
  %15 = alloca i64, align 8
  %16 = alloca i64, align 8
  %17 = alloca ptr, align 8
  %18 = alloca i32, align 4
  %19 = alloca i8, align 1
  %20 = alloca %struct.H5_user_cb_state_t, align 8
  %21 = alloca i32, align 4
  store ptr %0, ptr %10, align 8, !tbaa !143
  store ptr %1, ptr %11, align 8, !tbaa !42
  store ptr %2, ptr %12, align 8, !tbaa !60
  store ptr %3, ptr %13, align 8, !tbaa !54
  store i64 %4, ptr %14, align 8, !tbaa !3
  store i64 %5, ptr %15, align 8, !tbaa !3
  store i64 %6, ptr %16, align 8, !tbaa !3
  store ptr %7, ptr %17, align 8, !tbaa !42
  call void @llvm.lifetime.start.p0(i64 4, ptr %18) #8
  store i32 0, ptr %18, align 4, !tbaa !7
  call void @llvm.lifetime.start.p0(i64 1, ptr %19) #8
  store i8 0, ptr %19, align 1, !tbaa !9
  %22 = load i8, ptr @H5VL_init_g, align 1, !tbaa !9, !range !14, !noundef !15
  %23 = trunc i8 %22 to i1
  br i1 %23, label %28, label %24

24:                                               ; preds = %8
  %25 = load i8, ptr @H5_libterm_g, align 1, !tbaa !9, !range !14, !noundef !15
  %26 = trunc i8 %25 to i1
  %27 = xor i1 %26, true
  br label %28

28:                                               ; preds = %24, %8
  %29 = phi i1 [ true, %8 ], [ %27, %24 ]
  %30 = xor i1 %29, true
  %31 = xor i1 %30, true
  %32 = zext i1 %31 to i32
  %33 = sext i32 %32 to i64
  %34 = call i64 @llvm.expect.i64(i64 %33, i64 1)
  %35 = icmp ne i64 %34, 0
  br i1 %35, label %36, label %144

36:                                               ; preds = %28
  %37 = load ptr, ptr %13, align 8, !tbaa !54
  %38 = getelementptr inbounds nuw %struct.H5VL_class_t, ptr %37, i32 0, i32 14
  %39 = getelementptr inbounds nuw %struct.H5VL_link_class_t, ptr %38, i32 0, i32 0
  %40 = load ptr, ptr %39, align 8, !tbaa !147
  %41 = icmp eq ptr null, %40
  br i1 %41, label %42, label %61

42:                                               ; preds = %36
  br label %43

43:                                               ; preds = %42
  br label %44

44:                                               ; preds = %43
  br label %45

45:                                               ; preds = %44
  %46 = load i64, ptr @H5E_VOL_g, align 8, !tbaa !3
  %47 = load i64, ptr @H5E_UNSUPPORTED_g, align 8, !tbaa !3
  %48 = call i32 (ptr, ptr, i32, i64, i64, ptr, ...) @H5E_printf_stack(ptr noundef @.str, ptr noundef @__func__.H5VL__link_create, i32 noundef 5100, i64 noundef %46, i64 noundef %47, ptr noundef @.str.214)
  br label %49

49:                                               ; preds = %45
  br label %50

50:                                               ; preds = %49
  store i8 1, ptr %19, align 1, !tbaa !9
  %51 = load i8, ptr %19, align 1, !tbaa !9, !range !14, !noundef !15
  %52 = trunc i8 %51 to i1
  %53 = zext i1 %52 to i8
  store i8 %53, ptr %19, align 1, !tbaa !9
  br label %54

54:                                               ; preds = %50
  br label %55

55:                                               ; preds = %54
  br label %56

56:                                               ; preds = %55
  store i32 -1, ptr %18, align 4, !tbaa !7
  br label %143

57:                                               ; No predecessors!
  br label %58

58:                                               ; preds = %57
  br label %59

59:                                               ; preds = %58
  br label %60

60:                                               ; preds = %59
  br label %61

61:                                               ; preds = %60, %36
  call void @llvm.lifetime.start.p0(i64 24, ptr %20) #8
  %62 = call i32 @H5_user_cb_prepare(ptr noundef %20)
  %63 = icmp slt i32 %62, 0
  br i1 %63, label %64, label %83

64:                                               ; preds = %61
  br label %65

65:                                               ; preds = %64
  br label %66

66:                                               ; preds = %65
  br label %67

67:                                               ; preds = %66
  %68 = load i64, ptr @H5E_LIB_g, align 8, !tbaa !3
  %69 = load i64, ptr @H5E_CANTSET_g, align 8, !tbaa !3
  %70 = call i32 (ptr, ptr, i32, i64, i64, ptr, ...) @H5E_printf_stack(ptr noundef @.str, ptr noundef @__func__.H5VL__link_create, i32 noundef 5103, i64 noundef %68, i64 noundef %69, ptr noundef @.str.2)
  br label %71

71:                                               ; preds = %67
  br label %72

72:                                               ; preds = %71
  store i8 1, ptr %19, align 1, !tbaa !9
  %73 = load i8, ptr %19, align 1, !tbaa !9, !range !14, !noundef !15
  %74 = trunc i8 %73 to i1
  %75 = zext i1 %74 to i8
  store i8 %75, ptr %19, align 1, !tbaa !9
  br label %76

76:                                               ; preds = %72
  br label %77

77:                                               ; preds = %76
  br label %78

78:                                               ; preds = %77
  store i32 -1, ptr %18, align 4, !tbaa !7
  store i32 10, ptr %21, align 4
  br label %118

79:                                               ; No predecessors!
  br label %80

80:                                               ; preds = %79
  br label %81

81:                                               ; preds = %80
  br label %82

82:                                               ; preds = %81
  br label %83

83:                                               ; preds = %82, %61
  %84 = load ptr, ptr %13, align 8, !tbaa !54
  %85 = getelementptr inbounds nuw %struct.H5VL_class_t, ptr %84, i32 0, i32 14
  %86 = getelementptr inbounds nuw %struct.H5VL_link_class_t, ptr %85, i32 0, i32 0
  %87 = load ptr, ptr %86, align 8, !tbaa !147
  %88 = load ptr, ptr %10, align 8, !tbaa !143
  %89 = load ptr, ptr %11, align 8, !tbaa !42
  %90 = load ptr, ptr %12, align 8, !tbaa !60
  %91 = load i64, ptr %14, align 8, !tbaa !3
  %92 = load i64, ptr %15, align 8, !tbaa !3
  %93 = load i64, ptr %16, align 8, !tbaa !3
  %94 = load ptr, ptr %17, align 8, !tbaa !42
  %95 = call i32 %87(ptr noundef %88, ptr noundef %89, ptr noundef %90, i64 noundef %91, i64 noundef %92, i64 noundef %93, ptr noundef %94)
  store i32 %95, ptr %18, align 4, !tbaa !7
  %96 = call i32 @H5_user_cb_restore(ptr noundef %20)
  %97 = icmp slt i32 %96, 0
  br i1 %97, label %98, label %117

98:                                               ; preds = %83
  br label %99

99:                                               ; preds = %98
  br label %100

100:                                              ; preds = %99
  br label %101

101:                                              ; preds = %100
  %102 = load i64, ptr @H5E_LIB_g, align 8, !tbaa !3
  %103 = load i64, ptr @H5E_CANTRESTORE_g, align 8, !tbaa !3
  %104 = call i32 (ptr, ptr, i32, i64, i64, ptr, ...) @H5E_printf_stack(ptr noundef @.str, ptr noundef @__func__.H5VL__link_create, i32 noundef 5108, i64 noundef %102, i64 noundef %103, ptr noundef @.str.2)
  br label %105

105:                                              ; preds = %101
  br label %106

106:                                              ; preds = %105
  store i8 1, ptr %19, align 1, !tbaa !9
  %107 = load i8, ptr %19, align 1, !tbaa !9, !range !14, !noundef !15
  %108 = trunc i8 %107 to i1
  %109 = zext i1 %108 to i8
  store i8 %109, ptr %19, align 1, !tbaa !9
  br label %110

110:                                              ; preds = %106
  br label %111

111:                                              ; preds = %110
  br label %112

112:                                              ; preds = %111
  store i32 -1, ptr %18, align 4, !tbaa !7
  store i32 10, ptr %21, align 4
  br label %118

113:                                              ; No predecessors!
  br label %114

114:                                              ; preds = %113
  br label %115

115:                                              ; preds = %114
  br label %116

116:                                              ; preds = %115
  br label %117

117:                                              ; preds = %116, %83
  store i32 0, ptr %21, align 4
  br label %118

118:                                              ; preds = %112, %78, %117
  call void @llvm.lifetime.end.p0(i64 24, ptr %20) #8
  %119 = load i32, ptr %21, align 4
  switch i32 %119, label %146 [
    i32 0, label %120
    i32 10, label %143
  ]

120:                                              ; preds = %118
  %121 = load i32, ptr %18, align 4, !tbaa !7
  %122 = icmp slt i32 %121, 0
  br i1 %122, label %123, label %142

123:                                              ; preds = %120
  br label %124

124:                                              ; preds = %123
  br label %125

125:                                              ; preds = %124
  br label %126

126:                                              ; preds = %125
  %127 = load i64, ptr @H5E_VOL_g, align 8, !tbaa !3
  %128 = load i64, ptr @H5E_CANTCREATE_g, align 8, !tbaa !3
  %129 = call i32 (ptr, ptr, i32, i64, i64, ptr, ...) @H5E_printf_stack(ptr noundef @.str, ptr noundef @__func__.H5VL__link_create, i32 noundef 5110, i64 noundef %127, i64 noundef %128, ptr noundef @.str.112)
  br label %130

130:                                              ; preds = %126
  br label %131

131:                                              ; preds = %130
  store i8 1, ptr %19, align 1, !tbaa !9
  %132 = load i8, ptr %19, align 1, !tbaa !9, !range !14, !noundef !15
  %133 = trunc i8 %132 to i1
  %134 = zext i1 %133 to i8
  store i8 %134, ptr %19, align 1, !tbaa !9
  br label %135

135:                                              ; preds = %131
  br label %136

136:                                              ; preds = %135
  br label %137

137:                                              ; preds = %136
  store i32 -1, ptr %18, align 4, !tbaa !7
  br label %143

138:                                              ; No predecessors!
  br label %139

139:                                              ; preds = %138
  br label %140

140:                                              ; preds = %139
  br label %141

141:                                              ; preds = %140
  br label %142

142:                                              ; preds = %141, %120
  br label %143

143:                                              ; preds = %142, %118, %137, %56
  br label %144

144:                                              ; preds = %143, %28
  %145 = load i32, ptr %18, align 4, !tbaa !7
  store i32 %145, ptr %9, align 4
  store i32 1, ptr %21, align 4
  br label %146

146:                                              ; preds = %144, %118
  call void @llvm.lifetime.end.p0(i64 1, ptr %19) #8
  call void @llvm.lifetime.end.p0(i64 4, ptr %18) #8
  %147 = load i32, ptr %9, align 4
  ret i32 %147
}