; Function Attrs: nounwind uwtable
define internal fastcc range(i32 -1, -2147483648) i32 @H5VL__link_create(ptr noundef %0, ptr noundef %1, ptr noundef %2, ptr noundef readonly captures(none) %3, i64 noundef %4, i64 noundef %5, i64 noundef %6, ptr noundef %7) unnamed_addr #0 {
  %9 = alloca %struct.H5_user_cb_state_t, align 8
  %10 = load i8, ptr @H5VL_init_g, align 1, !tbaa !33, !range !35, !noundef !36
  %11 = trunc nuw i8 %10 to i1
  %12 = load i8, ptr @H5_libterm_g, align 1, !range !35
  %13 = trunc nuw i8 %12 to i1
  %14 = xor i1 %13, true
  %15 = select i1 %11, i1 true, i1 %14
  br i1 %15, label %16, label %41, !prof !37

16:                                               ; preds = %8
  %17 = getelementptr inbounds nuw i8, ptr %3, i64 408
  %18 = load ptr, ptr %17, align 8, !tbaa !111
  %19 = icmp eq ptr %18, null
  br i1 %19, label %20, label %24

20:                                               ; preds = %16
  %21 = load i64, ptr @H5E_VOL_g, align 8, !tbaa !3
  %22 = load i64, ptr @H5E_UNSUPPORTED_g, align 8, !tbaa !3
  %23 = tail call i32 (ptr, ptr, i32, i64, i64, ptr, ...) @H5E_printf_stack(ptr noundef nonnull @.str, ptr noundef nonnull @__func__.H5VL__link_create, i32 noundef 5100, i64 noundef %21, i64 noundef %22, ptr noundef nonnull @.str.214) #7
  br label %41

24:                                               ; preds = %16
  call void @llvm.lifetime.start.p0(i64 24, ptr nonnull %9) #7
  %25 = call i32 @H5_user_cb_prepare(ptr noundef nonnull %9) #7
  %26 = icmp slt i32 %25, 0
  br i1 %26, label %.thread, label %27

27:                                               ; preds = %24
  %28 = load ptr, ptr %17, align 8, !tbaa !111
  %29 = call i32 %28(ptr noundef %0, ptr noundef %1, ptr noundef %2, i64 noundef %4, i64 noundef %5, i64 noundef %6, ptr noundef %7) #7
  %30 = call i32 @H5_user_cb_restore(ptr noundef nonnull %9) #7
  %31 = icmp slt i32 %30, 0
  br i1 %31, label %.thread, label %35

.thread:                                          ; preds = %27, %24
  %H5E_CANTSET_g.sink = phi ptr [ @H5E_CANTSET_g, %24 ], [ @H5E_CANTRESTORE_g, %27 ]
  %.sink = phi i32 [ 5103, %24 ], [ 5108, %27 ]
  %32 = load i64, ptr @H5E_LIB_g, align 8, !tbaa !3
  %33 = load i64, ptr %H5E_CANTSET_g.sink, align 8, !tbaa !3
  %34 = call i32 (ptr, ptr, i32, i64, i64, ptr, ...) @H5E_printf_stack(ptr noundef nonnull @.str, ptr noundef nonnull @__func__.H5VL__link_create, i32 noundef %.sink, i64 noundef %32, i64 noundef %33, ptr noundef nonnull @.str.2) #7
  call void @llvm.lifetime.end.p0(i64 24, ptr nonnull %9) #7
  br label %41

35:                                               ; preds = %27
  call void @llvm.lifetime.end.p0(i64 24, ptr nonnull %9) #7
  %36 = icmp slt i32 %29, 0
  br i1 %36, label %37, label %41

37:                                               ; preds = %35
  %38 = load i64, ptr @H5E_VOL_g, align 8, !tbaa !3
  %39 = load i64, ptr @H5E_CANTCREATE_g, align 8, !tbaa !3
  %40 = call i32 (ptr, ptr, i32, i64, i64, ptr, ...) @H5E_printf_stack(ptr noundef nonnull @.str, ptr noundef nonnull @__func__.H5VL__link_create, i32 noundef 5110, i64 noundef %38, i64 noundef %39, ptr noundef nonnull @.str.112) #7
  br label %41

41:                                               ; preds = %.thread, %35, %8, %37, %20
  %.017 = phi i32 [ -1, %20 ], [ %29, %35 ], [ -1, %37 ], [ 0, %8 ], [ -1, %.thread ]
  ret i32 %.017
}